target datalayout = "e-m:e-p270:32:32-p271:32:32-p272:64:64-i64:64-i128:128-f80:128-n8:16:32:64-S128"
target triple = "x86_64-pc-linux-gnu"

%struct.strbuf = type { i64, i64, ptr }

@.str.1 = private unnamed_addr constant [20 x i8] c"builtin/mailsplit.c\00", align 1
@keep_cr = internal global i32 0, align 4
@mboxrd = internal global i32 0, align 4
@buf = internal global %struct.strbuf { i64 0, i64 0, ptr @strbuf_slopbuf }, align 8
@strbuf_slopbuf = external global [0 x i8], align 1
@stderr = external global ptr, align 8
@.str.17 = private unnamed_addr constant [17 x i8] c"corrupt mailbox\0A\00", align 1
@.str.18 = private unnamed_addr constant [2 x i8] c"w\00", align 1
@.str.19 = private unnamed_addr constant [20 x i8] c"cannot write output\00", align 1
@.str.20 = private unnamed_addr constant [17 x i8] c"cannot read mbox\00", align 1
@.str.21 = private unnamed_addr constant [6 x i8] c"From \00", align 1
@.str.22 = private unnamed_addr constant [11 x i8] c"./strbuf.h\00", align 1
@.str.23 = private unnamed_addr constant [30 x i8] c"strbuf_setlen() beyond buffer\00", align 1
@.str.24 = private unnamed_addr constant [2 x i8] c">\00", align 1

; Function Attrs: inlinehint nounwind uwtable
define internal i64 @strbuf_avail(ptr noundef %0) #6 {
  %2 = alloca ptr, align 8
  store ptr %0, ptr %2, align 8, !tbaa !39
  %3 = load ptr, ptr %2, align 8, !tbaa !39
  %4 = getelementptr inbounds nuw %struct.strbuf, ptr %3, i32 0, i32 0
  %5 = load i64, ptr %4, align 8, !tbaa !41
  %6 = icmp ne i64 %5, 0
  br i1 %6, label %7, label %16

7:                                                ; preds = %1
  %8 = load ptr, ptr %2, align 8, !tbaa !39
  %9 = getelementptr inbounds nuw %struct.strbuf, ptr %8, i32 0, i32 0
  %10 = load i64, ptr %9, align 8, !tbaa !41
  %11 = load ptr, ptr %2, align 8, !tbaa !39
  %12 = getelementptr inbounds nuw %struct.strbuf, ptr %11, i32 0, i32 1
  %13 = load i64, ptr %12, align 8, !tbaa !38
  %14 = sub i64 %10, %13
  %15 = sub i64 %14, 1
  br label %17

16:                                               ; preds = %1
  br label %17

17:                                               ; preds = %16, %7
  %18 = phi i64 [ %15, %7 ], [ 0, %16 ]
  ret i64 %18
}

; Function Attrs: nounwind uwtable
define internal i32 @is_gtfrom(ptr noundef %0) #0 {
  %2 = alloca i32, align 4
  %3 = alloca ptr, align 8
  %4 = alloca i64, align 8
  %5 = alloca i64, align 8
  %6 = alloca i32, align 4
  store ptr %0, ptr %3, align 8, !tbaa !39
  call void @llvm.lifetime.start.p0(i64 8, ptr %4) #11
  store i64 6, ptr %4, align 8, !tbaa !30
  call void @llvm.lifetime.start.p0(i64 8, ptr %5) #11
  %7 = load ptr, ptr %3, align 8, !tbaa !39
  %8 = getelementptr inbounds nuw %struct.strbuf, ptr %7, i32 0, i32 1
  %9 = load i64, ptr %8, align 8, !tbaa !38
  %10 = load i64, ptr %4, align 8, !tbaa !30
  %11 = icmp ult i64 %9, %10
  br i1 %11, label %12, label %13

12:                                               ; preds = %1
  store i32 0, ptr %2, align 4
  store i32 1, ptr %6, align 4
  br label %31

13:                                               ; preds = %1
  %14 = load ptr, ptr %3, align 8, !tbaa !39
  %15 = getelementptr inbounds nuw %struct.strbuf, ptr %14, i32 0, i32 2
  %16 = load ptr, ptr %15, align 8, !tbaa !36
  %17 = call i64 @strspn(ptr noundef %16, ptr noundef @.str.24) #13
  store i64 %17, ptr %5, align 8, !tbaa !30
  %18 = load i64, ptr %5, align 8, !tbaa !30
  %19 = icmp ne i64 %18, 0
  br i1 %19, label %20, label %28

20:                                               ; preds = %13
  %21 = load ptr, ptr %3, align 8, !tbaa !39
  %22 = getelementptr inbounds nuw %struct.strbuf, ptr %21, i32 0, i32 2
  %23 = load ptr, ptr %22, align 8, !tbaa !36
  %24 = load i64, ptr %5, align 8, !tbaa !30
  %25 = getelementptr inbounds nuw i8, ptr %23, i64 %24
  %26 = call i32 @starts_with(ptr noundef %25, ptr noundef @.str.21)
  %27 = icmp ne i32 %26, 0
  br label %28

28:                                               ; preds = %20, %13
  %29 = phi i1 [ false, %13 ], [ %27, %20 ]
  %30 = zext i1 %29 to i32
  store i32 %30, ptr %2, align 4
  store i32 1, ptr %6, align 4
  br label %31

31:                                               ; preds = %28, %12
  call void @llvm.lifetime.end.p0(i64 8, ptr %5) #11
  call void @llvm.lifetime.end.p0(i64 8, ptr %4) #11
  %32 = load i32, ptr %2, align 4
  ret i32 %32
}

; Function Attrs: inlinehint nounwind uwtable
define internal void @strbuf_addch(ptr noundef %0, i32 noundef %1) #6 {
  %3 = alloca ptr, align 8
  %4 = alloca i32, align 4
  store ptr %0, ptr %3, align 8, !tbaa !39
  store i32 %1, ptr %4, align 4, !tbaa !4
  %5 = load ptr, ptr %3, align 8, !tbaa !39
  %6 = call i64 @strbuf_avail(ptr noundef %5)
  %7 = icmp ne i64 %6, 0
  br i1 %7, label %10, label %8

8:                                                ; preds = %2
  %9 = load ptr, ptr %3, align 8, !tbaa !39
  call void @strbuf_grow(ptr noundef %9, i64 noundef 1)
  br label %10

10:                                               ; preds = %8, %2
  %11 = load i32, ptr %4, align 4, !tbaa !4
  %12 = trunc i32 %11 to i8
  %13 = load ptr, ptr %3, align 8, !tbaa !39
  %14 = getelementptr inbounds nuw %struct.strbuf, ptr %13, i32 0, i32 2
  %15 = load ptr, ptr %14, align 8, !tbaa !36
  %16 = load ptr, ptr %3, align 8, !tbaa !39
  %17 = getelementptr inbounds nuw %struct.strbuf, ptr %16, i32 0, i32 1
  %18 = load i64, ptr %17, align 8, !tbaa !38
  %19 = add i64 %18, 1
  store i64 %19, ptr %17, align 8, !tbaa !38
  %20 = getelementptr inbounds nuw i8, ptr %15, i64 %18
  store i8 %12, ptr %20, align 1, !tbaa !15
  %21 = load ptr, ptr %3, align 8, !tbaa !39
  %22 = getelementptr inbounds nuw %struct.strbuf, ptr %21, i32 0, i32 2
  %23 = load ptr, ptr %22, align 8, !tbaa !36
  %24 = load ptr, ptr %3, align 8, !tbaa !39
  %25 = getelementptr inbounds nuw %struct.strbuf, ptr %24, i32 0, i32 1
  %26 = load i64, ptr %25, align 8, !tbaa !38
  %27 = getelementptr inbounds nuw i8, ptr %23, i64 %26
  store i8 0, ptr %27, align 1, !tbaa !15
  ret void
}

; Function Attrs: inlinehint nounwind uwtable
define internal void @strbuf_setlen(ptr noundef %0, i64 noundef %1) #6 {
  %3 = alloca ptr, align 8
  %4 = alloca i64, align 8
  store ptr %0, ptr %3, align 8, !tbaa !39
  store i64 %1, ptr %4, align 8, !tbaa !30
  %5 = load i64, ptr %4, align 8, !tbaa !30
  %6 = load ptr, ptr %3, align 8, !tbaa !39
  %7 = getelementptr inbounds nuw %struct.strbuf, ptr %6, i32 0, i32 0
  %8 = load i64, ptr %7, align 8, !tbaa !41
  %9 = icmp ne i64 %8, 0
  br i1 %9, label %10, label %15

10:                                               ; preds = %2
  %11 = load ptr, ptr %3, align 8, !tbaa !39
  %12 = getelementptr inbounds nuw %struct.strbuf, ptr %11, i32 0, i32 0
  %13 = load i64, ptr %12, align 8, !tbaa !41
  %14 = sub i64 %13, 1
  br label %16

15:                                               ; preds = %2
  br label %16

16:                                               ; preds = %15, %10
  %17 = phi i64 [ %14, %10 ], [ 0, %15 ]
  %18 = icmp ugt i64 %5, %17
  br i1 %18, label %19, label %20

19:                                               ; preds = %16
  call void (ptr, i32, ptr, ...) @BUG_fl(ptr noundef @.str.22, i32 noundef 167, ptr noundef @.str.23) #12
  unreachable

20:                                               ; preds = %16
  %21 = load i64, ptr %4, align 8, !tbaa !30
  %22 = load ptr, ptr %3, align 8, !tbaa !39
  %23 = getelementptr inbounds nuw %struct.strbuf, ptr %22, i32 0, i32 1
  store i64 %21, ptr %23, align 8, !tbaa !38
  %24 = load ptr, ptr %3, align 8, !tbaa !39
  %25 = getelementptr inbounds nuw %struct.strbuf, ptr %24, i32 0, i32 2
  %26 = load ptr, ptr %25, align 8, !tbaa !36
  %27 = icmp ne ptr %26, @strbuf_slopbuf
  br i1 %27, label %28, label %34

28:                                               ; preds = %20
  %29 = load ptr, ptr %3, align 8, !tbaa !39
  %30 = getelementptr inbounds nuw %struct.strbuf, ptr %29, i32 0, i32 2
  %31 = load ptr, ptr %30, align 8, !tbaa !36
  %32 = load i64, ptr %4, align 8, !tbaa !30
  %33 = getelementptr inbounds nuw i8, ptr %31, i64 %32
  store i8 0, ptr %33, align 1, !tbaa !15
  br label %35

34:                                               ; preds = %20
  br label %35

35:                                               ; preds = %34, %28
  ret void
}

; Function Attrs: nounwind uwtable
define internal i32 @split_one(ptr noundef %0, ptr noundef %1, i32 noundef %2) #0 {
  %4 = alloca ptr, align 8
  %5 = alloca ptr, align 8
  %6 = alloca i32, align 4
  %7 = alloca ptr, align 8
  %8 = alloca i32, align 4
  %9 = alloca i32, align 4
  %10 = alloca i32, align 4
  store ptr %0, ptr %4, align 8, !tbaa !23
  store ptr %1, ptr %5, align 8, !tbaa !11
  store i32 %2, ptr %6, align 4, !tbaa !4
  call void @llvm.lifetime.start.p0(i64 8, ptr %7) #11
  call void @llvm.lifetime.start.p0(i64 4, ptr %8) #11
  call void @llvm.lifetime.start.p0(i64 4, ptr %9) #11
  store i32 0, ptr %9, align 4, !tbaa !4
  call void @llvm.lifetime.start.p0(i64 4, ptr %10) #11
  %11 = load ptr, ptr getelementptr inbounds nuw (%struct.strbuf, ptr @buf, i32 0, i32 2), align 8, !tbaa !36
  %12 = load i64, ptr getelementptr inbounds nuw (%struct.strbuf, ptr @buf, i32 0, i32 1), align 8, !tbaa !38
  %13 = trunc i64 %12 to i32
  %14 = call i32 @is_from_line(ptr noundef %11, i32 noundef %13)
  %15 = icmp ne i32 %14, 0
  %16 = xor i1 %15, true
  %17 = zext i1 %16 to i32
  store i32 %17, ptr %10, align 4, !tbaa !4
  %18 = load i32, ptr %10, align 4, !tbaa !4
  %19 = icmp ne i32 %18, 0
  br i1 %19, label %20, label %27

20:                                               ; preds = %3
  %21 = load i32, ptr %6, align 4, !tbaa !4
  %22 = icmp ne i32 %21, 0
  br i1 %22, label %27, label %23

23:                                               ; preds = %20
  %24 = load ptr, ptr @stderr, align 8, !tbaa !23
  %25 = call i32 (ptr, ptr, ...) @fprintf(ptr noundef %24, ptr noundef @.str.17) #11
  %26 = call i32 @common_exit(ptr noundef @.str.1, i32 noundef 79, i32 noundef 1)
  call void @exit(i32 noundef %26) #14
  unreachable

27:                                               ; preds = %20, %3
  %28 = load ptr, ptr %5, align 8, !tbaa !11
  %29 = call i32 (ptr, i32, ...) @xopen(ptr noundef %28, i32 noundef 193, i32 noundef 438)
  store i32 %29, ptr %8, align 4, !tbaa !4
  %30 = load i32, ptr %8, align 4, !tbaa !4
  %31 = call ptr @xfdopen(i32 noundef %30, ptr noundef @.str.18)
  store ptr %31, ptr %7, align 8, !tbaa !23
  br label %32

32:                                               ; preds = %92, %27
  %33 = load i32, ptr @keep_cr, align 4, !tbaa !4
  %34 = icmp ne i32 %33, 0
  br i1 %34, label %57, label %35

35:                                               ; preds = %32
  %36 = load i64, ptr getelementptr inbounds nuw (%struct.strbuf, ptr @buf, i32 0, i32 1), align 8, !tbaa !38
  %37 = icmp ugt i64 %36, 1
  br i1 %37, label %38, label %57

38:                                               ; preds = %35
  %39 = load ptr, ptr getelementptr inbounds nuw (%struct.strbuf, ptr @buf, i32 0, i32 2), align 8, !tbaa !36
  %40 = load i64, ptr getelementptr inbounds nuw (%struct.strbuf, ptr @buf, i32 0, i32 1), align 8, !tbaa !38
  %41 = sub i64 %40, 1
  %42 = getelementptr inbounds nuw i8, ptr %39, i64 %41
  %43 = load i8, ptr %42, align 1, !tbaa !15
  %44 = sext i8 %43 to i32
  %45 = icmp eq i32 %44, 10
  br i1 %45, label %46, label %57

46:                                               ; preds = %38
  %47 = load ptr, ptr getelementptr inbounds nuw (%struct.strbuf, ptr @buf, i32 0, i32 2), align 8, !tbaa !36
  %48 = load i64, ptr getelementptr inbounds nuw (%struct.strbuf, ptr @buf, i32 0, i32 1), align 8, !tbaa !38
  %49 = sub i64 %48, 2
  %50 = getelementptr inbounds nuw i8, ptr %47, i64 %49
  %51 = load i8, ptr %50, align 1, !tbaa !15
  %52 = sext i8 %51 to i32
  %53 = icmp eq i32 %52, 13
  br i1 %53, label %54, label %57

54:                                               ; preds = %46
  %55 = load i64, ptr getelementptr inbounds nuw (%struct.strbuf, ptr @buf, i32 0, i32 1), align 8, !tbaa !38
  %56 = sub i64 %55, 2
  call void @strbuf_setlen(ptr noundef @buf, i64 noundef %56)
  call void @strbuf_addch(ptr noundef @buf, i32 noundef 10)
  br label %57

57:                                               ; preds = %54, %46, %38, %35, %32
  %58 = load i32, ptr @mboxrd, align 4, !tbaa !4
  %59 = icmp ne i32 %58, 0
  br i1 %59, label %60, label %64

60:                                               ; preds = %57
  %61 = call i32 @is_gtfrom(ptr noundef @buf)
  %62 = icmp ne i32 %61, 0
  br i1 %62, label %63, label %64

63:                                               ; preds = %60
  call void @strbuf_remove(ptr noundef @buf, i64 noundef 0, i64 noundef 1)
  br label %64

64:                                               ; preds = %63, %60, %57
  %65 = load ptr, ptr getelementptr inbounds nuw (%struct.strbuf, ptr @buf, i32 0, i32 2), align 8, !tbaa !36
  %66 = load i64, ptr getelementptr inbounds nuw (%struct.strbuf, ptr @buf, i32 0, i32 1), align 8, !tbaa !38
  %67 = load ptr, ptr %7, align 8, !tbaa !23
  %68 = call i64 @fwrite(ptr noundef %65, i64 noundef 1, i64 noundef %66, ptr noundef %67)
  %69 = load i64, ptr getelementptr inbounds nuw (%struct.strbuf, ptr @buf, i32 0, i32 1), align 8, !tbaa !38
  %70 = icmp ne i64 %68, %69
  br i1 %70, label %71, label %72

71:                                               ; preds = %64
  call void (ptr, ...) @die_errno(ptr noundef @.str.19) #12
  unreachable

72:                                               ; preds = %64
  %73 = load ptr, ptr %4, align 8, !tbaa !23
  %74 = call i32 @strbuf_getwholeline(ptr noundef @buf, ptr noundef %73, i32 noundef 10)
  %75 = icmp ne i32 %74, 0
  br i1 %75, label %76, label %82

76:                                               ; preds = %72
  %77 = load ptr, ptr %4, align 8, !tbaa !23
  %78 = call i32 @feof(ptr noundef %77) #11
  %79 = icmp ne i32 %78, 0
  br i1 %79, label %80, label %81

80:                                               ; preds = %76
  store i32 1, ptr %9, align 4, !tbaa !4
  br label %93

81:                                               ; preds = %76
  call void (ptr, ...) @die_errno(ptr noundef @.str.20) #12
  unreachable

82:                                               ; preds = %72
  %83 = load i32, ptr %10, align 4, !tbaa !4
  %84 = icmp ne i32 %83, 0
  br i1 %84, label %92, label %85

85:                                               ; preds = %82
  %86 = load ptr, ptr getelementptr inbounds nuw (%struct.strbuf, ptr @buf, i32 0, i32 2), align 8, !tbaa !36
  %87 = load i64, ptr getelementptr inbounds nuw (%struct.strbuf, ptr @buf, i32 0, i32 1), align 8, !tbaa !38
  %88 = trunc i64 %87 to i32
  %89 = call i32 @is_from_line(ptr noundef %86, i32 noundef %88)
  %90 = icmp ne i32 %89, 0
  br i1 %90, label %91, label %92

91:                                               ; preds = %85
  br label %93

92:                                               ; preds = %85, %82
  br label %32

93:                                               ; preds = %91, %80
  %94 = load ptr, ptr %7, align 8, !tbaa !23
  %95 = call i32 @fclose(ptr noundef %94)
  %96 = load i32, ptr %9, align 4, !tbaa !4
  call void @llvm.lifetime.end.p0(i64 4, ptr %10) #11
  call void @llvm.lifetime.end.p0(i64 4, ptr %9) #11
  call void @llvm.lifetime.end.p0(i64 4, ptr %8) #11
  call void @llvm.lifetime.end.p0(i64 8, ptr %7) #11
  ret i32 %96
}