; Function Attrs: nounwind uwtable
define internal fastcc range(i32 0, 2) i32 @split_one(ptr noundef %0, ptr noundef %1, i32 noundef range(i32 0, 2) %2) unnamed_addr #0 {
  %4 = load ptr, ptr getelementptr inbounds nuw (i8, ptr @buf, i64 16), align 8, !tbaa !32
  %5 = load i64, ptr getelementptr inbounds nuw (i8, ptr @buf, i64 8), align 8, !tbaa !34
  %6 = trunc i64 %5 to i32
  %7 = tail call fastcc i32 @is_from_line(ptr noundef %4, i32 noundef %6)
  %.not = icmp eq i32 %7, 0
  %8 = or i32 %7, %2
  %or.cond.not = icmp eq i32 %8, 0
  br i1 %or.cond.not, label %9, label %13

9:                                                ; preds = %3
  %10 = load ptr, ptr @stderr, align 8, !tbaa !28
  %11 = tail call i64 @fwrite(ptr nonnull @.str.17, i64 16, i64 1, ptr %10) #19
  %12 = tail call i32 @common_exit(ptr noundef nonnull @.str.1, i32 noundef 79, i32 noundef 1) #16
  tail call void @exit(i32 noundef %12) #15
  unreachable

13:                                               ; preds = %3
  %14 = tail call i32 (ptr, i32, ...) @xopen(ptr noundef %1, i32 noundef 193, i32 noundef 438) #16
  %15 = tail call ptr @xfdopen(i32 noundef %14, ptr noundef nonnull @.str.18) #16
  br label %16

16:                                               ; preds = %.backedge, %13
  %.b = load i1, ptr @keep_cr, align 4
  %17 = load i64, ptr getelementptr inbounds nuw (i8, ptr @buf, i64 8), align 8
  %18 = icmp ult i64 %17, 2
  %or.cond3.not = select i1 %.b, i1 true, i1 %18
  br i1 %or.cond3.not, label %45, label %19

19:                                               ; preds = %16
  %20 = load ptr, ptr getelementptr inbounds nuw (i8, ptr @buf, i64 16), align 8, !tbaa !32
  %21 = getelementptr i8, ptr %20, i64 %17
  %22 = getelementptr i8, ptr %21, i64 -1
  %23 = load i8, ptr %22, align 1, !tbaa !9
  %24 = icmp eq i8 %23, 10
  br i1 %24, label %25, label %45

25:                                               ; preds = %19
  %26 = add i64 %17, -2
  %27 = getelementptr inbounds nuw i8, ptr %20, i64 %26
  %28 = load i8, ptr %27, align 1, !tbaa !9
  %29 = icmp eq i8 %28, 13
  br i1 %29, label %30, label %45

30:                                               ; preds = %25
  %31 = load i64, ptr @buf, align 8, !tbaa !35
  %spec.select.i = tail call i64 @llvm.usub.sat.i64(i64 %31, i64 1)
  %32 = icmp ugt i64 %26, %spec.select.i
  br i1 %32, label %33, label %34

33:                                               ; preds = %30
  tail call void (ptr, i32, ptr, ...) @BUG_fl(ptr noundef nonnull @.str.22, i32 noundef 167, ptr noundef nonnull @.str.23) #15
  unreachable

34:                                               ; preds = %30
  store i64 %26, ptr getelementptr inbounds nuw (i8, ptr @buf, i64 8), align 8, !tbaa !34
  %.not9.i = icmp eq ptr %20, @strbuf_slopbuf
  br i1 %.not9.i, label %strbuf_setlen.exit, label %35

35:                                               ; preds = %34
  store i8 0, ptr %27, align 1, !tbaa !9
  %.pre = load i64, ptr @buf, align 8, !tbaa !35
  %.pre27 = load i64, ptr getelementptr inbounds nuw (i8, ptr @buf, i64 8), align 8
  br label %strbuf_setlen.exit

strbuf_setlen.exit:                               ; preds = %34, %35
  %36 = phi i64 [ %26, %34 ], [ %.pre27, %35 ]
  %37 = phi i64 [ %31, %34 ], [ %.pre, %35 ]
  %.not.i.i = icmp eq i64 %37, 0
  %.neg.i = add i64 %36, 1
  %.not1.i = icmp eq i64 %37, %.neg.i
  %.not.i = select i1 %.not.i.i, i1 true, i1 %.not1.i
  br i1 %.not.i, label %38, label %strbuf_addch.exit

38:                                               ; preds = %strbuf_setlen.exit
  tail call void @strbuf_grow(ptr noundef nonnull @buf, i64 noundef 1) #16
  %.pre.i = load i64, ptr getelementptr inbounds nuw (i8, ptr @buf, i64 8), align 8, !tbaa !34
  %.pre2.i = add i64 %.pre.i, 1
  br label %strbuf_addch.exit

strbuf_addch.exit:                                ; preds = %strbuf_setlen.exit, %38
  %.pre-phi.i = phi i64 [ %.pre2.i, %38 ], [ %.neg.i, %strbuf_setlen.exit ]
  %39 = phi i64 [ %.pre.i, %38 ], [ %36, %strbuf_setlen.exit ]
  %40 = load ptr, ptr getelementptr inbounds nuw (i8, ptr @buf, i64 16), align 8, !tbaa !32
  store i64 %.pre-phi.i, ptr getelementptr inbounds nuw (i8, ptr @buf, i64 8), align 8, !tbaa !34
  %41 = getelementptr inbounds nuw i8, ptr %40, i64 %39
  store i8 10, ptr %41, align 1, !tbaa !9
  %42 = load ptr, ptr getelementptr inbounds nuw (i8, ptr @buf, i64 16), align 8, !tbaa !32
  %43 = load i64, ptr getelementptr inbounds nuw (i8, ptr @buf, i64 8), align 8, !tbaa !34
  %44 = getelementptr inbounds nuw i8, ptr %42, i64 %43
  store i8 0, ptr %44, align 1, !tbaa !9
  %.pre28 = load i64, ptr getelementptr inbounds nuw (i8, ptr @buf, i64 8), align 8
  br label %45

45:                                               ; preds = %strbuf_addch.exit, %25, %19, %16
  %46 = phi i64 [ %.pre28, %strbuf_addch.exit ], [ %17, %25 ], [ %17, %19 ], [ %17, %16 ]
  %.b13 = load i1, ptr @mboxrd, align 4
  %47 = icmp ugt i64 %46, 5
  %or.cond.not25 = select i1 %.b13, i1 %47, i1 false
  br i1 %or.cond.not25, label %48, label %is_gtfrom.exit.thread

48:                                               ; preds = %45
  %49 = load ptr, ptr getelementptr inbounds nuw (i8, ptr @buf, i64 16), align 8, !tbaa !32
  %50 = tail call i64 @strspn(ptr noundef %49, ptr noundef nonnull @.str.24) #17
  %.not.i20 = icmp eq i64 %50, 0
  br i1 %.not.i20, label %is_gtfrom.exit.thread, label %is_gtfrom.exit

is_gtfrom.exit:                                   ; preds = %48
  %51 = getelementptr inbounds nuw i8, ptr %49, i64 %50
  %52 = tail call i32 @starts_with(ptr noundef nonnull %51, ptr noundef nonnull @.str.21) #16
  %.not26 = icmp eq i32 %52, 0
  br i1 %.not26, label %is_gtfrom.exit.thread, label %53

53:                                               ; preds = %is_gtfrom.exit
  tail call void @strbuf_remove(ptr noundef nonnull @buf, i64 noundef 0, i64 noundef 1) #16
  br label %is_gtfrom.exit.thread

is_gtfrom.exit.thread:                            ; preds = %48, %53, %is_gtfrom.exit, %45
  %54 = load ptr, ptr getelementptr inbounds nuw (i8, ptr @buf, i64 16), align 8, !tbaa !32
  %55 = load i64, ptr getelementptr inbounds nuw (i8, ptr @buf, i64 8), align 8, !tbaa !34
  %56 = tail call i64 @fwrite(ptr noundef %54, i64 noundef 1, i64 noundef %55, ptr noundef %15)
  %57 = load i64, ptr getelementptr inbounds nuw (i8, ptr @buf, i64 8), align 8, !tbaa !34
  %.not16 = icmp eq i64 %56, %57
  br i1 %.not16, label %59, label %58

58:                                               ; preds = %is_gtfrom.exit.thread
  tail call void (ptr, ...) @die_errno(ptr noundef nonnull @.str.19) #15
  unreachable

59:                                               ; preds = %is_gtfrom.exit.thread
  %60 = tail call i32 @strbuf_getwholeline(ptr noundef nonnull @buf, ptr noundef %0, i32 noundef 10) #16
  %.not17 = icmp eq i32 %60, 0
  br i1 %.not17, label %64, label %61

61:                                               ; preds = %59
  %62 = tail call i32 @feof(ptr noundef %0) #16
  %.not19 = icmp eq i32 %62, 0
  br i1 %.not19, label %63, label %.loopexit

63:                                               ; preds = %61
  tail call void (ptr, ...) @die_errno(ptr noundef nonnull @.str.20) #15
  unreachable

64:                                               ; preds = %59
  br i1 %.not, label %.backedge, label %65

65:                                               ; preds = %64
  %66 = load ptr, ptr getelementptr inbounds nuw (i8, ptr @buf, i64 16), align 8, !tbaa !32
  %67 = load i64, ptr getelementptr inbounds nuw (i8, ptr @buf, i64 8), align 8, !tbaa !34
  %68 = trunc i64 %67 to i32
  %69 = tail call fastcc i32 @is_from_line(ptr noundef %66, i32 noundef %68)
  %.not18 = icmp eq i32 %69, 0
  br i1 %.not18, label %.backedge, label %.loopexit

.backedge:                                        ; preds = %65, %64
  br label %16

.loopexit:                                        ; preds = %65, %61
  %.0 = phi i32 [ 1, %61 ], [ 0, %65 ]
  %70 = tail call i32 @fclose(ptr noundef %15)
  ret i32 %.0
}